target datalayout = "e-m:e-p270:32:32-p271:32:32-p272:64:64-i64:64-i128:128-f80:128-n8:16:32:64-S128"
target triple = "x86_64-pc-linux-gnu"

%struct.ident_t = type { i32, i32, i32, i32, ptr }
%class.anon.114 = type { ptr, ptr }

@1 = private unnamed_addr constant %struct.ident_t { i32 0, i32 514, i32 0, i32 22, ptr @0 }, align 8

; Function Attrs: inlinehint mustprogress nounwind ssp uwtable
define linkonce_odr hidden void @_ZN6open3d1t8geometry6kernel9transform21TransformPointsKernelIdEEvPKT_PS5_(ptr noundef %0, ptr noundef %1) #3 comdat {
  %3 = alloca ptr, align 8
  %4 = alloca ptr, align 8
  %5 = alloca [4 x double], align 16
  store ptr %0, ptr %3, align 8, !tbaa !31
  store ptr %1, ptr %4, align 8, !tbaa !31
  call void @llvm.lifetime.start.p0(i64 32, ptr %5) #25
  %6 = load ptr, ptr %3, align 8, !tbaa !31
  %7 = getelementptr inbounds double, ptr %6, i64 0
  %8 = load double, ptr %7, align 8, !tbaa !138
  %9 = load ptr, ptr %4, align 8, !tbaa !31
  %10 = getelementptr inbounds double, ptr %9, i64 0
  %11 = load double, ptr %10, align 8, !tbaa !138
  %12 = load ptr, ptr %3, align 8, !tbaa !31
  %13 = getelementptr inbounds double, ptr %12, i64 1
  %14 = load double, ptr %13, align 8, !tbaa !138
  %15 = load ptr, ptr %4, align 8, !tbaa !31
  %16 = getelementptr inbounds double, ptr %15, i64 1
  %17 = load double, ptr %16, align 8, !tbaa !138
  %18 = fmul double %14, %17
  %19 = call double @llvm.fmuladd.f64(double %8, double %11, double %18)
  %20 = load ptr, ptr %3, align 8, !tbaa !31
  %21 = getelementptr inbounds double, ptr %20, i64 2
  %22 = load double, ptr %21, align 8, !tbaa !138
  %23 = load ptr, ptr %4, align 8, !tbaa !31
  %24 = getelementptr inbounds double, ptr %23, i64 2
  %25 = load double, ptr %24, align 8, !tbaa !138
  %26 = call double @llvm.fmuladd.f64(double %22, double %25, double %19)
  %27 = load ptr, ptr %3, align 8, !tbaa !31
  %28 = getelementptr inbounds double, ptr %27, i64 3
  %29 = load double, ptr %28, align 8, !tbaa !138
  %30 = fadd double %26, %29
  store double %30, ptr %5, align 8, !tbaa !138
  %31 = getelementptr inbounds double, ptr %5, i64 1
  %32 = load ptr, ptr %3, align 8, !tbaa !31
  %33 = getelementptr inbounds double, ptr %32, i64 4
  %34 = load double, ptr %33, align 8, !tbaa !138
  %35 = load ptr, ptr %4, align 8, !tbaa !31
  %36 = getelementptr inbounds double, ptr %35, i64 0
  %37 = load double, ptr %36, align 8, !tbaa !138
  %38 = load ptr, ptr %3, align 8, !tbaa !31
  %39 = getelementptr inbounds double, ptr %38, i64 5
  %40 = load double, ptr %39, align 8, !tbaa !138
  %41 = load ptr, ptr %4, align 8, !tbaa !31
  %42 = getelementptr inbounds double, ptr %41, i64 1
  %43 = load double, ptr %42, align 8, !tbaa !138
  %44 = fmul double %40, %43
  %45 = call double @llvm.fmuladd.f64(double %34, double %37, double %44)
  %46 = load ptr, ptr %3, align 8, !tbaa !31
  %47 = getelementptr inbounds double, ptr %46, i64 6
  %48 = load double, ptr %47, align 8, !tbaa !138
  %49 = load ptr, ptr %4, align 8, !tbaa !31
  %50 = getelementptr inbounds double, ptr %49, i64 2
  %51 = load double, ptr %50, align 8, !tbaa !138
  %52 = call double @llvm.fmuladd.f64(double %48, double %51, double %45)
  %53 = load ptr, ptr %3, align 8, !tbaa !31
  %54 = getelementptr inbounds double, ptr %53, i64 7
  %55 = load double, ptr %54, align 8, !tbaa !138
  %56 = fadd double %52, %55
  store double %56, ptr %31, align 8, !tbaa !138
  %57 = getelementptr inbounds double, ptr %5, i64 2
  %58 = load ptr, ptr %3, align 8, !tbaa !31
  %59 = getelementptr inbounds double, ptr %58, i64 8
  %60 = load double, ptr %59, align 8, !tbaa !138
  %61 = load ptr, ptr %4, align 8, !tbaa !31
  %62 = getelementptr inbounds double, ptr %61, i64 0
  %63 = load double, ptr %62, align 8, !tbaa !138
  %64 = load ptr, ptr %3, align 8, !tbaa !31
  %65 = getelementptr inbounds double, ptr %64, i64 9
  %66 = load double, ptr %65, align 8, !tbaa !138
  %67 = load ptr, ptr %4, align 8, !tbaa !31
  %68 = getelementptr inbounds double, ptr %67, i64 1
  %69 = load double, ptr %68, align 8, !tbaa !138
  %70 = fmul double %66, %69
  %71 = call double @llvm.fmuladd.f64(double %60, double %63, double %70)
  %72 = load ptr, ptr %3, align 8, !tbaa !31
  %73 = getelementptr inbounds double, ptr %72, i64 10
  %74 = load double, ptr %73, align 8, !tbaa !138
  %75 = load ptr, ptr %4, align 8, !tbaa !31
  %76 = getelementptr inbounds double, ptr %75, i64 2
  %77 = load double, ptr %76, align 8, !tbaa !138
  %78 = call double @llvm.fmuladd.f64(double %74, double %77, double %71)
  %79 = load ptr, ptr %3, align 8, !tbaa !31
  %80 = getelementptr inbounds double, ptr %79, i64 11
  %81 = load double, ptr %80, align 8, !tbaa !138
  %82 = fadd double %78, %81
  store double %82, ptr %57, align 8, !tbaa !138
  %83 = getelementptr inbounds double, ptr %5, i64 3
  %84 = load ptr, ptr %3, align 8, !tbaa !31
  %85 = getelementptr inbounds double, ptr %84, i64 12
  %86 = load double, ptr %85, align 8, !tbaa !138
  %87 = load ptr, ptr %4, align 8, !tbaa !31
  %88 = getelementptr inbounds double, ptr %87, i64 0
  %89 = load double, ptr %88, align 8, !tbaa !138
  %90 = load ptr, ptr %3, align 8, !tbaa !31
  %91 = getelementptr inbounds double, ptr %90, i64 13
  %92 = load double, ptr %91, align 8, !tbaa !138
  %93 = load ptr, ptr %4, align 8, !tbaa !31
  %94 = getelementptr inbounds double, ptr %93, i64 1
  %95 = load double, ptr %94, align 8, !tbaa !138
  %96 = fmul double %92, %95
  %97 = call double @llvm.fmuladd.f64(double %86, double %89, double %96)
  %98 = load ptr, ptr %3, align 8, !tbaa !31
  %99 = getelementptr inbounds double, ptr %98, i64 14
  %100 = load double, ptr %99, align 8, !tbaa !138
  %101 = load ptr, ptr %4, align 8, !tbaa !31
  %102 = getelementptr inbounds double, ptr %101, i64 2
  %103 = load double, ptr %102, align 8, !tbaa !138
  %104 = call double @llvm.fmuladd.f64(double %100, double %103, double %97)
  %105 = load ptr, ptr %3, align 8, !tbaa !31
  %106 = getelementptr inbounds double, ptr %105, i64 15
  %107 = load double, ptr %106, align 8, !tbaa !138
  %108 = fadd double %104, %107
  store double %108, ptr %83, align 8, !tbaa !138
  %109 = getelementptr inbounds [4 x double], ptr %5, i64 0, i64 0
  %110 = load double, ptr %109, align 16, !tbaa !138
  %111 = getelementptr inbounds [4 x double], ptr %5, i64 0, i64 3
  %112 = load double, ptr %111, align 8, !tbaa !138
  %113 = fdiv double %110, %112
  %114 = load ptr, ptr %4, align 8, !tbaa !31
  %115 = getelementptr inbounds double, ptr %114, i64 0
  store double %113, ptr %115, align 8, !tbaa !138
  %116 = getelementptr inbounds [4 x double], ptr %5, i64 0, i64 1
  %117 = load double, ptr %116, align 8, !tbaa !138
  %118 = getelementptr inbounds [4 x double], ptr %5, i64 0, i64 3
  %119 = load double, ptr %118, align 8, !tbaa !138
  %120 = fdiv double %117, %119
  %121 = load ptr, ptr %4, align 8, !tbaa !31
  %122 = getelementptr inbounds double, ptr %121, i64 1
  store double %120, ptr %122, align 8, !tbaa !138
  %123 = getelementptr inbounds [4 x double], ptr %5, i64 0, i64 2
  %124 = load double, ptr %123, align 16, !tbaa !138
  %125 = getelementptr inbounds [4 x double], ptr %5, i64 0, i64 3
  %126 = load double, ptr %125, align 8, !tbaa !138
  %127 = fdiv double %124, %126
  %128 = load ptr, ptr %4, align 8, !tbaa !31
  %129 = getelementptr inbounds double, ptr %128, i64 2
  store double %127, ptr %129, align 8, !tbaa !138
  call void @llvm.lifetime.end.p0(i64 32, ptr %5) #25
  ret void
}

; Function Attrs: noinline noreturn nounwind ssp uwtable
define linkonce_odr hidden void @__clang_call_terminate(ptr noundef %0) #23 comdat {
  %2 = call ptr @__cxa_begin_catch(ptr %0) #25
  call void @_ZSt9terminatev() #28
  unreachable
}

; Function Attrs: inlinehint mustprogress ssp uwtable
define internal void @"_ZZZZN6open3d1t8geometry6kernel9transform18TransformPointsCPUERKNS_4core6TensorERS5_ENK3$_0clEvENKUlvE0_clEvENKUllE_clEl"(ptr noundef nonnull align 8 dereferenceable(16) %0, i64 noundef %1) #2 align 2 {
  %3 = alloca ptr, align 8
  %4 = alloca i64, align 8
  store ptr %0, ptr %3, align 8, !tbaa !9
  store i64 %1, ptr %4, align 8, !tbaa !16
  %5 = load ptr, ptr %3, align 8
  %6 = getelementptr inbounds nuw %class.anon.114, ptr %5, i32 0, i32 0
  %7 = load ptr, ptr %6, align 8, !tbaa !34
  %8 = getelementptr inbounds nuw %class.anon.114, ptr %5, i32 0, i32 1
  %9 = load ptr, ptr %8, align 8, !tbaa !36
  %10 = load i64, ptr %4, align 8, !tbaa !16
  %11 = mul nsw i64 3, %10
  %12 = getelementptr inbounds double, ptr %9, i64 %11
  call void @_ZN6open3d1t8geometry6kernel9transform21TransformPointsKernelIdEEvPKT_PS5_(ptr noundef %7, ptr noundef %12)
  ret void
}

; Function Attrs: alwaysinline norecurse nounwind ssp uwtable
define internal void @"_ZN6open3d4core15ParallelForCPU_IZZZNS_1t8geometry6kernel9transform18TransformPointsCPUERKNS0_6TensorERS6_ENK3$_0clEvENKUlvE0_clEvEUllE_EEvRKNS0_6DeviceElRKT_.omp_outlined"(ptr noalias noundef %0, ptr noalias noundef %1, ptr noundef nonnull align 8 dereferenceable(8) %2, ptr noundef nonnull align 8 dereferenceable(16) %3) #24 personality ptr @__gxx_personality_v0 {
  %5 = alloca ptr, align 8
  %6 = alloca ptr, align 8
  %7 = alloca ptr, align 8
  %8 = alloca ptr, align 8
  %9 = alloca ptr, align 8
  %10 = alloca i64, align 8
  %11 = alloca i64, align 8
  %12 = alloca i64, align 8
  %13 = alloca i64, align 8
  %14 = alloca i64, align 8
  %15 = alloca i64, align 8
  %16 = alloca i64, align 8
  %17 = alloca i32, align 4
  %18 = alloca i64, align 8
  store ptr %0, ptr %5, align 8, !tbaa !209
  store ptr %1, ptr %6, align 8, !tbaa !209
  store ptr %2, ptr %7, align 8, !tbaa !351
  store ptr %3, ptr %8, align 8, !tbaa !9
  %19 = load ptr, ptr %7, align 8, !tbaa !351
  %20 = load ptr, ptr %8, align 8, !tbaa !9
  store ptr %20, ptr %9, align 8
  call void @llvm.lifetime.start.p0(i64 8, ptr %10) #25
  call void @llvm.lifetime.start.p0(i64 8, ptr %11) #25
  %21 = load i64, ptr %19, align 8, !tbaa !16
  store i64 %21, ptr %11, align 8, !tbaa !16
  call void @llvm.lifetime.start.p0(i64 8, ptr %12) #25
  %22 = load i64, ptr %11, align 8, !tbaa !16
  %23 = sub nsw i64 %22, 0
  %24 = sdiv i64 %23, 1
  %25 = sub nsw i64 %24, 1
  store i64 %25, ptr %12, align 8, !tbaa !16
  call void @llvm.lifetime.start.p0(i64 8, ptr %13) #25
  store i64 0, ptr %13, align 8, !tbaa !16
  call void @llvm.lifetime.end.p0(i64 8, ptr %13) #25
  %26 = load i64, ptr %11, align 8, !tbaa !16
  %27 = icmp slt i64 0, %26
  br i1 %27, label %28, label %62

28:                                               ; preds = %4
  call void @llvm.lifetime.start.p0(i64 8, ptr %14) #25
  store i64 0, ptr %14, align 8, !tbaa !16
  call void @llvm.lifetime.start.p0(i64 8, ptr %15) #25
  %29 = load i64, ptr %12, align 8, !tbaa !16
  store i64 %29, ptr %15, align 8, !tbaa !16
  call void @llvm.lifetime.start.p0(i64 8, ptr %16) #25
  store i64 1, ptr %16, align 8, !tbaa !16
  call void @llvm.lifetime.start.p0(i64 4, ptr %17) #25
  store i32 0, ptr %17, align 4, !tbaa !39
  call void @llvm.lifetime.start.p0(i64 8, ptr %18) #25
  %30 = load ptr, ptr %5, align 8
  %31 = load i32, ptr %30, align 4, !tbaa !39
  call void @__kmpc_for_static_init_8(ptr @1, i32 %31, i32 34, ptr %17, ptr %14, ptr %15, ptr %16, i64 1, i64 1)
  %32 = load i64, ptr %15, align 8, !tbaa !16
  %33 = load i64, ptr %12, align 8, !tbaa !16
  %34 = icmp sgt i64 %32, %33
  br i1 %34, label %35, label %37

35:                                               ; preds = %28
  %36 = load i64, ptr %12, align 8, !tbaa !16
  br label %39

37:                                               ; preds = %28
  %38 = load i64, ptr %15, align 8, !tbaa !16
  br label %39

39:                                               ; preds = %37, %35
  %40 = phi i64 [ %36, %35 ], [ %38, %37 ]
  store i64 %40, ptr %15, align 8, !tbaa !16
  %41 = load i64, ptr %14, align 8, !tbaa !16
  store i64 %41, ptr %10, align 8, !tbaa !16
  br label %42

42:                                               ; preds = %55, %39
  %43 = load i64, ptr %10, align 8, !tbaa !16
  %44 = load i64, ptr %15, align 8, !tbaa !16
  %45 = icmp sle i64 %43, %44
  br i1 %45, label %47, label %46

46:                                               ; preds = %42
  br label %58

47:                                               ; preds = %42
  %48 = load i64, ptr %10, align 8, !tbaa !16
  %49 = mul nsw i64 %48, 1
  %50 = add nsw i64 0, %49
  store i64 %50, ptr %18, align 8, !tbaa !16
  %51 = load ptr, ptr %9, align 8, !tbaa !9
  %52 = load i64, ptr %18, align 8, !tbaa !16
  invoke void @"_ZZZZN6open3d1t8geometry6kernel9transform18TransformPointsCPUERKNS_4core6TensorERS5_ENK3$_0clEvENKUlvE0_clEvENKUllE_clEl"(ptr noundef nonnull align 8 dereferenceable(16) %51, i64 noundef %52)
          to label %53 unwind label %63

53:                                               ; preds = %47
  br label %54

54:                                               ; preds = %53
  br label %55

55:                                               ; preds = %54
  %56 = load i64, ptr %10, align 8, !tbaa !16
  %57 = add nsw i64 %56, 1
  store i64 %57, ptr %10, align 8, !tbaa !16
  br label %42

58:                                               ; preds = %46
  br label %59

59:                                               ; preds = %58
  %60 = load ptr, ptr %5, align 8
  %61 = load i32, ptr %60, align 4, !tbaa !39
  call void @__kmpc_for_static_fini(ptr @1, i32 %61)
  call void @llvm.lifetime.end.p0(i64 8, ptr %18) #25
  call void @llvm.lifetime.end.p0(i64 4, ptr %17) #25
  call void @llvm.lifetime.end.p0(i64 8, ptr %16) #25
  call void @llvm.lifetime.end.p0(i64 8, ptr %15) #25
  call void @llvm.lifetime.end.p0(i64 8, ptr %14) #25
  br label %62

62:                                               ; preds = %59, %4
  call void @llvm.lifetime.end.p0(i64 8, ptr %12) #25
  call void @llvm.lifetime.end.p0(i64 8, ptr %11) #25
  call void @llvm.lifetime.end.p0(i64 8, ptr %10) #25
  ret void

63:                                               ; preds = %47
  %64 = landingpad { ptr, i32 }
          catch ptr null
  %65 = extractvalue { ptr, i32 } %64, 0
  call void @__clang_call_terminate(ptr %65) #28
  unreachable
}