; Function Attrs: alwaysinline norecurse nounwind ssp uwtable
define internal void @"_ZN6open3d4core15ParallelForCPU_IZZZNS_1t8geometry6kernel9transform18TransformPointsCPUERKNS0_6TensorERS6_ENK3$_0clEvENKUlvE0_clEvEUllE_EEvRKNS0_6DeviceElRKT_.omp_outlined"(ptr noalias noundef readonly captures(none) %0, ptr noalias readnone captures(none) %1, ptr noundef nonnull readonly align 8 captures(none) dereferenceable(8) %2, ptr noundef nonnull readonly align 8 captures(none) dereferenceable(16) %3) #23 personality ptr @__gxx_personality_v0 {
  %5 = alloca i64, align 8
  %6 = alloca i64, align 8
  %7 = alloca i64, align 8
  %8 = alloca i32, align 4
  %9 = load i64, ptr %2, align 8, !tbaa !9
  %10 = icmp sgt i64 %9, 0
  br i1 %10, label %11, label %76

11:                                               ; preds = %4
  %12 = add nsw i64 %9, -1
  call void @llvm.lifetime.start.p0(i64 8, ptr nonnull %5) #24
  store i64 0, ptr %5, align 8, !tbaa !9
  call void @llvm.lifetime.start.p0(i64 8, ptr nonnull %6) #24
  store i64 %12, ptr %6, align 8, !tbaa !9
  call void @llvm.lifetime.start.p0(i64 8, ptr nonnull %7) #24
  store i64 1, ptr %7, align 8, !tbaa !9
  call void @llvm.lifetime.start.p0(i64 4, ptr nonnull %8) #24
  store i32 0, ptr %8, align 4, !tbaa !146
  %13 = load i32, ptr %0, align 4, !tbaa !146
  call void @__kmpc_for_static_init_8(ptr nonnull @1, i32 %13, i32 34, ptr nonnull %8, ptr nonnull %5, ptr nonnull %6, ptr nonnull %7, i64 1, i64 1)
  %14 = load i64, ptr %6, align 8, !tbaa !9
  %15 = call i64 @llvm.smin.i64(i64 %14, i64 %12)
  store i64 %15, ptr %6, align 8, !tbaa !9
  %16 = load i64, ptr %5, align 8, !tbaa !9
  %.not14 = icmp sgt i64 %16, %15
  br i1 %.not14, label %._crit_edge, label %.lr.ph

.lr.ph:                                           ; preds = %11
  %.val = load ptr, ptr %3, align 8, !tbaa !27
  %17 = getelementptr inbounds nuw i8, ptr %3, i64 8
  %.val13 = load ptr, ptr %17, align 8, !tbaa !30
  %18 = getelementptr inbounds nuw i8, ptr %.val, i64 8
  %19 = getelementptr inbounds nuw i8, ptr %.val, i64 16
  %20 = getelementptr inbounds nuw i8, ptr %.val, i64 24
  %21 = getelementptr inbounds nuw i8, ptr %.val, i64 32
  %22 = getelementptr inbounds nuw i8, ptr %.val, i64 40
  %23 = getelementptr inbounds nuw i8, ptr %.val, i64 48
  %24 = getelementptr inbounds nuw i8, ptr %.val, i64 56
  %25 = getelementptr inbounds nuw i8, ptr %.val, i64 64
  %26 = getelementptr inbounds nuw i8, ptr %.val, i64 72
  %27 = getelementptr inbounds nuw i8, ptr %.val, i64 80
  %28 = getelementptr inbounds nuw i8, ptr %.val, i64 88
  %29 = getelementptr inbounds nuw i8, ptr %.val, i64 96
  %30 = getelementptr inbounds nuw i8, ptr %.val, i64 104
  %31 = getelementptr inbounds nuw i8, ptr %.val, i64 112
  %32 = getelementptr inbounds nuw i8, ptr %.val, i64 120
  br label %33

33:                                               ; preds = %.lr.ph, %33
  %.015 = phi i64 [ %16, %.lr.ph ], [ %75, %33 ]
  %.idx.i = mul nsw i64 %.015, 24
  %34 = getelementptr inbounds i8, ptr %.val13, i64 %.idx.i
  %35 = load double, ptr %.val, align 8, !tbaa !639
  %36 = load double, ptr %34, align 8, !tbaa !639
  %37 = load double, ptr %18, align 8, !tbaa !639
  %38 = getelementptr inbounds nuw i8, ptr %34, i64 8
  %39 = load double, ptr %38, align 8, !tbaa !639
  %40 = fmul double %37, %39
  %41 = call double @llvm.fmuladd.f64(double %35, double %36, double %40)
  %42 = load double, ptr %19, align 8, !tbaa !639
  %43 = getelementptr inbounds nuw i8, ptr %34, i64 16
  %44 = load double, ptr %43, align 8, !tbaa !639
  %45 = call double @llvm.fmuladd.f64(double %42, double %44, double %41)
  %46 = load double, ptr %20, align 8, !tbaa !639
  %47 = fadd double %45, %46
  %48 = load double, ptr %21, align 8, !tbaa !639
  %49 = load double, ptr %22, align 8, !tbaa !639
  %50 = fmul double %39, %49
  %51 = call double @llvm.fmuladd.f64(double %48, double %36, double %50)
  %52 = load double, ptr %23, align 8, !tbaa !639
  %53 = call double @llvm.fmuladd.f64(double %52, double %44, double %51)
  %54 = load double, ptr %24, align 8, !tbaa !639
  %55 = fadd double %54, %53
  %56 = load double, ptr %25, align 8, !tbaa !639
  %57 = load double, ptr %26, align 8, !tbaa !639
  %58 = fmul double %39, %57
  %59 = call double @llvm.fmuladd.f64(double %56, double %36, double %58)
  %60 = load double, ptr %27, align 8, !tbaa !639
  %61 = call double @llvm.fmuladd.f64(double %60, double %44, double %59)
  %62 = load double, ptr %28, align 8, !tbaa !639
  %63 = fadd double %62, %61
  %64 = load double, ptr %29, align 8, !tbaa !639
  %65 = load double, ptr %30, align 8, !tbaa !639
  %66 = fmul double %39, %65
  %67 = call double @llvm.fmuladd.f64(double %64, double %36, double %66)
  %68 = load double, ptr %31, align 8, !tbaa !639
  %69 = call double @llvm.fmuladd.f64(double %68, double %44, double %67)
  %70 = load double, ptr %32, align 8, !tbaa !639
  %71 = fadd double %70, %69
  %72 = fdiv double %47, %71
  store double %72, ptr %34, align 8, !tbaa !639
  %73 = fdiv double %55, %71
  store double %73, ptr %38, align 8, !tbaa !639
  %74 = fdiv double %63, %71
  store double %74, ptr %43, align 8, !tbaa !639
  %75 = add i64 %.015, 1
  %exitcond.not = icmp eq i64 %.015, %15
  br i1 %exitcond.not, label %._crit_edge, label %33

._crit_edge:                                      ; preds = %33, %11
  call void @__kmpc_for_static_fini(ptr nonnull @1, i32 %13)
  call void @llvm.lifetime.end.p0(i64 4, ptr nonnull %8) #24
  call void @llvm.lifetime.end.p0(i64 8, ptr nonnull %7) #24
  call void @llvm.lifetime.end.p0(i64 8, ptr nonnull %6) #24
  call void @llvm.lifetime.end.p0(i64 8, ptr nonnull %5) #24
  br label %76

76:                                               ; preds = %._crit_edge, %4
  ret void
}